target datalayout = "e-m:e-p270:32:32-p271:32:32-p272:64:64-i64:64-i128:128-f80:128-n8:16:32:64-S128"
target triple = "x86_64-pc-linux-gnu"

%struct.rb_shape_tree_t = type { ptr, ptr, i32, ptr, i32 }
%struct.rb_shape = type { ptr, i64, i32, i32, i8, i8, i32, ptr }

@rb_shape_tree_ptr = hidden global ptr null, align 8
@.str = private unnamed_addr constant [12 x i8] c"Unreachable\00", align 1

; Function Attrs: inlinehint nounwind sspstrong uwtable
define internal ptr @rb_current_shape_tree() #1 {
  %1 = load ptr, ptr @rb_shape_tree_ptr, align 8, !tbaa !15
  ret ptr %1
}

; Function Attrs: nounwind sspstrong uwtable
define hidden ptr @rb_shape_get_shape_by_id(i32 noundef %0) #0 {
  %2 = alloca i32, align 4
  %3 = alloca ptr, align 8
  store i32 %0, ptr %2, align 4, !tbaa !21
  call void @llvm.lifetime.start.p0(i64 8, ptr %3) #14
  %4 = call ptr @rb_current_shape_tree()
  %5 = getelementptr inbounds nuw %struct.rb_shape_tree_t, ptr %4, i32 0, i32 0
  %6 = load ptr, ptr %5, align 8, !tbaa !17
  %7 = load i32, ptr %2, align 4, !tbaa !21
  %8 = zext i32 %7 to i64
  %9 = getelementptr %struct.rb_shape, ptr %6, i64 %8
  store ptr %9, ptr %3, align 8, !tbaa !16
  %10 = load ptr, ptr %3, align 8, !tbaa !16
  call void @llvm.lifetime.end.p0(i64 8, ptr %3) #14
  ret ptr %10
}

; Function Attrs: nounwind sspstrong uwtable
define hidden ptr @rb_shape_get_next_iv_shape(ptr noundef %0, i64 noundef %1) #0 {
  %3 = alloca ptr, align 8
  %4 = alloca i64, align 8
  %5 = alloca i8, align 1
  store ptr %0, ptr %3, align 8, !tbaa !16
  store i64 %1, ptr %4, align 8, !tbaa !26
  call void @llvm.lifetime.start.p0(i64 1, ptr %5) #14
  %6 = load ptr, ptr %3, align 8, !tbaa !16
  %7 = load i64, ptr %4, align 8, !tbaa !26
  %8 = call ptr @get_next_shape_internal(ptr noundef %6, i64 noundef %7, i32 noundef 1, ptr noundef %5, i1 noundef zeroext true)
  call void @llvm.lifetime.end.p0(i64 1, ptr %5) #14
  ret ptr %8
}

; Function Attrs: nounwind sspstrong uwtable
define dso_local i32 @rb_shape_id(ptr noundef %0) #0 {
  %2 = alloca ptr, align 8
  store ptr %0, ptr %2, align 8, !tbaa !16
  %3 = load ptr, ptr %2, align 8, !tbaa !16
  %4 = call ptr @rb_current_shape_tree()
  %5 = getelementptr inbounds nuw %struct.rb_shape_tree_t, ptr %4, i32 0, i32 0
  %6 = load ptr, ptr %5, align 8, !tbaa !17
  %7 = ptrtoint ptr %3 to i64
  %8 = ptrtoint ptr %6 to i64
  %9 = sub i64 %7, %8
  %10 = sdiv exact i64 %9, 40
  %11 = trunc i64 %10 to i32
  ret i32 %11
}

; Function Attrs: nounwind sspstrong uwtable
define hidden ptr @rb_shape_get_parent(ptr noundef %0) #0 {
  %2 = alloca ptr, align 8
  store ptr %0, ptr %2, align 8, !tbaa !16
  %3 = load ptr, ptr %2, align 8, !tbaa !16
  %4 = getelementptr inbounds nuw %struct.rb_shape, ptr %3, i32 0, i32 6
  %5 = load i32, ptr %4, align 4, !tbaa !22
  %6 = call ptr @rb_shape_get_shape_by_id(i32 noundef %5)
  ret ptr %6
}

; Function Attrs: nounwind sspstrong uwtable
define hidden ptr @rb_shape_rebuild_shape(ptr noundef %0, ptr noundef %1) #0 {
  %3 = alloca ptr, align 8
  %4 = alloca ptr, align 8
  %5 = alloca ptr, align 8
  %6 = alloca ptr, align 8
  %7 = alloca i32, align 4
  store ptr %0, ptr %4, align 8, !tbaa !16
  store ptr %1, ptr %5, align 8, !tbaa !16
  call void @llvm.lifetime.start.p0(i64 8, ptr %6) #14
  %8 = load ptr, ptr %5, align 8, !tbaa !16
  %9 = getelementptr inbounds nuw %struct.rb_shape, ptr %8, i32 0, i32 4
  %10 = load i8, ptr %9, align 8, !tbaa !28
  %11 = zext i8 %10 to i32
  %12 = load ptr, ptr %4, align 8, !tbaa !16
  %13 = getelementptr inbounds nuw %struct.rb_shape, ptr %12, i32 0, i32 4
  %14 = load i8, ptr %13, align 8, !tbaa !28
  %15 = zext i8 %14 to i32
  %16 = icmp ne i32 %11, %15
  br i1 %16, label %17, label %34

17:                                               ; preds = %2
  %18 = load ptr, ptr %4, align 8, !tbaa !16
  %19 = load ptr, ptr %5, align 8, !tbaa !16
  %20 = call ptr @rb_shape_get_parent(ptr noundef %19)
  %21 = call ptr @rb_shape_rebuild_shape(ptr noundef %18, ptr noundef %20)
  store ptr %21, ptr %6, align 8, !tbaa !16
  %22 = load ptr, ptr %6, align 8, !tbaa !16
  %23 = call i32 @rb_shape_id(ptr noundef %22)
  %24 = icmp eq i32 %23, 2
  %25 = xor i1 %24, true
  %26 = xor i1 %25, true
  %27 = zext i1 %26 to i32
  %28 = sext i32 %27 to i64
  %29 = call i64 @llvm.expect.i64(i64 %28, i64 0)
  %30 = icmp ne i64 %29, 0
  br i1 %30, label %31, label %33

31:                                               ; preds = %17
  %32 = load ptr, ptr %6, align 8, !tbaa !16
  store ptr %32, ptr %3, align 8
  store i32 1, ptr %7, align 4
  br label %51

33:                                               ; preds = %17
  br label %36

34:                                               ; preds = %2
  %35 = load ptr, ptr %4, align 8, !tbaa !16
  store ptr %35, ptr %6, align 8, !tbaa !16
  br label %36

36:                                               ; preds = %34, %33
  %37 = load ptr, ptr %5, align 8, !tbaa !16
  %38 = getelementptr inbounds nuw %struct.rb_shape, ptr %37, i32 0, i32 4
  %39 = load i8, ptr %38, align 8, !tbaa !28
  %40 = zext i8 %39 to i32
  switch i32 %40, label %49 [
    i32 1, label %41
    i32 0, label %47
    i32 2, label %47
    i32 3, label %47
    i32 4, label %48
  ]

41:                                               ; preds = %36
  %42 = load ptr, ptr %6, align 8, !tbaa !16
  %43 = load ptr, ptr %5, align 8, !tbaa !16
  %44 = getelementptr inbounds nuw %struct.rb_shape, ptr %43, i32 0, i32 1
  %45 = load i64, ptr %44, align 8, !tbaa !43
  %46 = call ptr @rb_shape_get_next_iv_shape(ptr noundef %42, i64 noundef %45)
  store ptr %46, ptr %6, align 8, !tbaa !16
  br label %49

47:                                               ; preds = %36, %36, %36
  br label %49

48:                                               ; preds = %36
  call void (ptr, ...) @rb_bug(ptr noundef @.str) #19
  unreachable

49:                                               ; preds = %36, %47, %41
  %50 = load ptr, ptr %6, align 8, !tbaa !16
  store ptr %50, ptr %3, align 8
  store i32 1, ptr %7, align 4
  br label %51

51:                                               ; preds = %49, %31
  call void @llvm.lifetime.end.p0(i64 8, ptr %6) #14
  %52 = load ptr, ptr %3, align 8
  ret ptr %52
}