; Function Attrs: nounwind sspstrong uwtable
define hidden ptr @rb_shape_rebuild_shape(ptr noundef %0, ptr noundef readonly captures(none) %1) local_unnamed_addr #1 {
  %3 = alloca i8, align 1
  %4 = getelementptr inbounds nuw i8, ptr %1, i64 24
  %5 = load i8, ptr %4, align 8, !tbaa !27
  %6 = getelementptr inbounds nuw i8, ptr %0, i64 24
  %7 = load i8, ptr %6, align 8, !tbaa !27
  %.not = icmp eq i8 %5, %7
  br i1 %.not, label %24, label %8

8:                                                ; preds = %2
  %9 = getelementptr inbounds nuw i8, ptr %1, i64 28
  %10 = load i32, ptr %9, align 4, !tbaa !20
  %11 = load ptr, ptr @rb_shape_tree_ptr, align 8, !tbaa !7
  %12 = load ptr, ptr %11, align 8, !tbaa !16
  %13 = zext i32 %10 to i64
  %14 = getelementptr %struct.rb_shape, ptr %12, i64 %13
  %15 = tail call ptr @rb_shape_rebuild_shape(ptr noundef nonnull %0, ptr noundef %14)
  %16 = load ptr, ptr @rb_shape_tree_ptr, align 8, !tbaa !7
  %17 = load ptr, ptr %16, align 8, !tbaa !16
  %18 = ptrtoint ptr %15 to i64
  %19 = ptrtoint ptr %17 to i64
  %20 = sub i64 %18, %19
  %21 = sdiv exact i64 %20, 40
  %22 = and i64 %21, 4294967295
  %23 = icmp eq i64 %22, 2
  br i1 %23, label %31, label %thread-pre-split, !prof !28

thread-pre-split:                                 ; preds = %8
  %.pr = load i8, ptr %4, align 8, !tbaa !27
  br label %24

24:                                               ; preds = %thread-pre-split, %2
  %25 = phi i8 [ %.pr, %thread-pre-split ], [ %5, %2 ]
  %.0 = phi ptr [ %15, %thread-pre-split ], [ %0, %2 ]
  switch i8 %25, label %31 [
    i8 1, label %26
    i8 4, label %30
  ]

26:                                               ; preds = %24
  %27 = getelementptr inbounds nuw i8, ptr %1, i64 8
  %28 = load i64, ptr %27, align 8, !tbaa !42
  call void @llvm.lifetime.start.p0(i64 1, ptr nonnull %3) #15
  %29 = call fastcc ptr @get_next_shape_internal(ptr noundef %.0, i64 noundef %28, i32 noundef 1, ptr noundef %3, i1 noundef zeroext true)
  call void @llvm.lifetime.end.p0(i64 1, ptr nonnull %3) #15
  br label %31

30:                                               ; preds = %24
  tail call void (ptr, ...) @rb_bug(ptr noundef nonnull @.str) #16
  unreachable

31:                                               ; preds = %24, %26, %8
  %.012 = phi ptr [ %15, %8 ], [ %.0, %24 ], [ %29, %26 ]
  ret ptr %.012
}